; Function Attrs: mustprogress nofree norecurse nosync nounwind willreturn memory(readwrite, inaccessiblemem: none) uwtable
define void @ffio_reset_dyn_buf(ptr noundef captures(none) initializes((0, 40), (48, 56), (72, 92), (96, 280)) %0) local_unnamed_addr #12 {
  %2 = getelementptr inbounds nuw i8, ptr %0, i64 40
  %3 = load ptr, ptr %2, align 8, !tbaa !18
  %4 = getelementptr inbounds nuw i8, ptr %0, i64 92
  %5 = load i32, ptr %4, align 4, !tbaa !25
  %6 = getelementptr inbounds nuw i8, ptr %3, i64 28
  %7 = getelementptr inbounds nuw i8, ptr %3, i64 24
  %8 = load i32, ptr %7, align 8, !tbaa !77
  %9 = getelementptr inbounds nuw i8, ptr %0, i64 56
  %10 = load ptr, ptr %9, align 8, !tbaa !21
  %11 = getelementptr inbounds nuw i8, ptr %0, i64 64
  %12 = load ptr, ptr %11, align 8, !tbaa !23
  tail call void @llvm.memset.p0.i64(ptr noundef nonnull align 8 dereferenceable(280) %0, i8 0, i64 280, i1 false)
  %13 = getelementptr inbounds nuw i8, ptr %0, i64 8
  store ptr %6, ptr %13, align 8, !tbaa !4
  %14 = getelementptr inbounds nuw i8, ptr %0, i64 16
  store i32 %8, ptr %14, align 8, !tbaa !13
  %15 = getelementptr inbounds nuw i8, ptr %0, i64 264
  store i32 %8, ptr %15, align 8, !tbaa !14
  %16 = getelementptr inbounds nuw i8, ptr %0, i64 24
  store ptr %6, ptr %16, align 8, !tbaa !16
  %17 = getelementptr inbounds nuw i8, ptr %0, i64 184
  store ptr %6, ptr %17, align 8, !tbaa !17
  store ptr %3, ptr %2, align 8, !tbaa !18
  %.sink7.i.idx.i = sext i32 %8 to i64
  %.sink7.i.i = getelementptr inbounds i8, ptr %6, i64 %.sink7.i.idx.i
  %18 = getelementptr inbounds nuw i8, ptr %0, i64 32
  store ptr %.sink7.i.i, ptr %18, align 8, !tbaa !19
  %19 = getelementptr inbounds nuw i8, ptr %0, i64 88
  store i32 1, ptr %19, align 8, !tbaa !20
  store ptr %10, ptr %9, align 8, !tbaa !21
  store ptr %12, ptr %11, align 8, !tbaa !23
  %20 = getelementptr inbounds nuw i8, ptr %0, i64 72
  %.not.i = icmp ne ptr %12, null
  %21 = zext i1 %.not.i to i32
  %22 = getelementptr inbounds nuw i8, ptr %0, i64 144
  tail call void @llvm.memset.p0.i64(ptr noundef nonnull align 8 dereferenceable(16) %20, i8 0, i64 16, i1 false)
  store i32 %21, ptr %22, align 8, !tbaa !24
  %23 = getelementptr inbounds nuw i8, ptr %0, i64 216
  store i32 32768, ptr %23, align 8, !tbaa !26
  %24 = getelementptr inbounds nuw i8, ptr %0, i64 128
  %25 = getelementptr inbounds nuw i8, ptr %0, i64 176
  store i32 0, ptr %25, align 8, !tbaa !29
  %26 = getelementptr inbounds nuw i8, ptr %0, i64 220
  tail call void @llvm.memset.p0.i64(ptr noundef nonnull align 8 dereferenceable(16) %24, i8 0, i64 16, i1 false)
  store i32 3, ptr %26, align 4, !tbaa !30
  %27 = getelementptr inbounds nuw i8, ptr %0, i64 224
  store i64 -9223372036854775808, ptr %27, align 8, !tbaa !31
  store i32 %5, ptr %4, align 4, !tbaa !25
  %28 = getelementptr inbounds nuw i8, ptr %3, i64 4
  store i32 0, ptr %28, align 4, !tbaa !81
  store i32 0, ptr %3, align 8, !tbaa !83
  ret void
}